target datalayout = "e-m:e-p270:32:32-p271:32:32-p272:64:64-i64:64-i128:128-f80:128-n8:16:32:64-S128"
target triple = "x86_64-pc-linux-gnu"

%struct.H5B2_t = type { ptr, ptr }
%struct.H5B2_hdr_t = type { %struct.H5C_cache_entry_t, %struct.H5B2_node_ptr_t, i8, i8, i32, i32, i16, i8, ptr, i64, i64, i64, i64, i8, i8, i8, ptr, ptr, ptr, ptr, ptr, ptr, ptr, i8, ptr, ptr, i64, ptr, ptr }
%struct.H5C_cache_entry_t = type { ptr, i64, i64, ptr, i8, ptr, i8, i8, i8, i8, i32, i8, i8, i8, i8, i8, i32, ptr, i32, i32, i32, i32, i32, i8, i8, ptr, ptr, ptr, ptr, ptr, ptr, i8, i32, i8, i64, ptr, i64, i64, i32, i8, i32, i32, i8, ptr, ptr, ptr }
%struct.H5B2_node_ptr_t = type { i64, i16, i64 }

@H5B2_init_g = global i8 0, align 1
@H5_libterm_g = external global i8, align 1
@.str = private unnamed_addr constant [98 x i8] c"generated/home/dtcxzyw/WorkSpace/Projects/compilers/llvm-opt-benchmark/bench/hdf5/hdf5/src/H5B2.c\00", align 1
@H5E_BTREE_g = external global i64, align 8
@H5E_CANTPROTECT_g = external global i64, align 8
@.str.3 = private unnamed_addr constant [35 x i8] c"unable to protect v2 B-tree header\00", align 1
@H5E_CANTDELETE_g = external global i64, align 8
@__func__.H5B2_close = private unnamed_addr constant [11 x i8] c"H5B2_close\00", align 1
@H5E_CANTDEC_g = external global i64, align 8
@.str.34 = private unnamed_addr constant [59 x i8] c"can't decrement reference count on shared v2 B-tree header\00", align 1
@.str.35 = private unnamed_addr constant [27 x i8] c"unable to delete v2 B-tree\00", align 1
@H5_H5B2_t_reg_free_list = internal global { i8, [3 x i8], i32, i32, [4 x i8], ptr, i64, ptr } { i8 0, [3 x i8] zeroinitializer, i32 0, i32 0, [4 x i8] zeroinitializer, ptr @.str.37, i64 16, ptr null }, align 8

; Function Attrs: nounwind uwtable
define i32 @H5B2_close(ptr noundef %0) #0 {
  %2 = alloca i32, align 4
  %3 = alloca ptr, align 8
  %4 = alloca i64, align 8
  %5 = alloca i8, align 1
  %6 = alloca i32, align 4
  %7 = alloca i8, align 1
  %8 = alloca ptr, align 8
  %9 = alloca i32, align 4
  store ptr %0, ptr %3, align 8, !tbaa !11
  call void @llvm.lifetime.start.p0(i64 8, ptr %4) #6
  store i64 -1, ptr %4, align 8, !tbaa !19
  call void @llvm.lifetime.start.p0(i64 1, ptr %5) #6
  store i8 0, ptr %5, align 1, !tbaa !15
  call void @llvm.lifetime.start.p0(i64 4, ptr %6) #6
  store i32 0, ptr %6, align 4, !tbaa !24
  call void @llvm.lifetime.start.p0(i64 1, ptr %7) #6
  store i8 0, ptr %7, align 1, !tbaa !15
  %10 = load i8, ptr @H5B2_init_g, align 1, !tbaa !15, !range !17, !noundef !18
  %11 = trunc i8 %10 to i1
  br i1 %11, label %16, label %12

12:                                               ; preds = %1
  %13 = load i8, ptr @H5_libterm_g, align 1, !tbaa !15, !range !17, !noundef !18
  %14 = trunc i8 %13 to i1
  %15 = xor i1 %14, true
  br label %16

16:                                               ; preds = %12, %1
  %17 = phi i1 [ true, %1 ], [ %15, %12 ]
  %18 = xor i1 %17, true
  %19 = xor i1 %18, true
  %20 = zext i1 %19 to i32
  %21 = sext i32 %20 to i64
  %22 = call i64 @llvm.expect.i64(i64 %21, i64 1)
  %23 = icmp ne i64 %22, 0
  br i1 %23, label %24, label %167

24:                                               ; preds = %16
  %25 = load ptr, ptr %3, align 8, !tbaa !11
  %26 = getelementptr inbounds nuw %struct.H5B2_t, ptr %25, i32 0, i32 0
  %27 = load ptr, ptr %26, align 8, !tbaa !21
  %28 = call i64 @H5B2__hdr_fuse_decr(ptr noundef %27)
  %29 = icmp eq i64 0, %28
  br i1 %29, label %30, label %51

30:                                               ; preds = %24
  %31 = load ptr, ptr %3, align 8, !tbaa !11
  %32 = getelementptr inbounds nuw %struct.H5B2_t, ptr %31, i32 0, i32 1
  %33 = load ptr, ptr %32, align 8, !tbaa !23
  %34 = load ptr, ptr %3, align 8, !tbaa !11
  %35 = getelementptr inbounds nuw %struct.H5B2_t, ptr %34, i32 0, i32 0
  %36 = load ptr, ptr %35, align 8, !tbaa !21
  %37 = getelementptr inbounds nuw %struct.H5B2_hdr_t, ptr %36, i32 0, i32 8
  store ptr %33, ptr %37, align 8, !tbaa !26
  %38 = load ptr, ptr %3, align 8, !tbaa !11
  %39 = getelementptr inbounds nuw %struct.H5B2_t, ptr %38, i32 0, i32 0
  %40 = load ptr, ptr %39, align 8, !tbaa !21
  %41 = getelementptr inbounds nuw %struct.H5B2_hdr_t, ptr %40, i32 0, i32 13
  %42 = load i8, ptr %41, align 8, !tbaa !40, !range !17, !noundef !18
  %43 = trunc i8 %42 to i1
  br i1 %43, label %44, label %50

44:                                               ; preds = %30
  store i8 1, ptr %5, align 1, !tbaa !15
  %45 = load ptr, ptr %3, align 8, !tbaa !11
  %46 = getelementptr inbounds nuw %struct.H5B2_t, ptr %45, i32 0, i32 0
  %47 = load ptr, ptr %46, align 8, !tbaa !21
  %48 = getelementptr inbounds nuw %struct.H5B2_hdr_t, ptr %47, i32 0, i32 9
  %49 = load i64, ptr %48, align 8, !tbaa !41
  store i64 %49, ptr %4, align 8, !tbaa !19
  br label %50

50:                                               ; preds = %44, %30
  br label %51

51:                                               ; preds = %50, %24
  %52 = load i8, ptr %5, align 1, !tbaa !15, !range !17, !noundef !18
  %53 = trunc i8 %52 to i1
  br i1 %53, label %54, label %137

54:                                               ; preds = %51
  call void @llvm.lifetime.start.p0(i64 8, ptr %8) #6
  %55 = load ptr, ptr %3, align 8, !tbaa !11
  %56 = getelementptr inbounds nuw %struct.H5B2_t, ptr %55, i32 0, i32 1
  %57 = load ptr, ptr %56, align 8, !tbaa !23
  %58 = load i64, ptr %4, align 8, !tbaa !19
  %59 = call ptr @H5B2__hdr_protect(ptr noundef %57, i64 noundef %58, ptr noundef null, i32 noundef 0)
  store ptr %59, ptr %8, align 8, !tbaa !13
  %60 = icmp eq ptr null, %59
  br i1 %60, label %61, label %80

61:                                               ; preds = %54
  br label %62

62:                                               ; preds = %61
  br label %63

63:                                               ; preds = %62
  br label %64

64:                                               ; preds = %63
  %65 = load i64, ptr @H5E_BTREE_g, align 8, !tbaa !19
  %66 = load i64, ptr @H5E_CANTPROTECT_g, align 8, !tbaa !19
  %67 = call i32 (ptr, ptr, i32, i64, i64, ptr, ...) @H5E_printf_stack(ptr noundef @.str, ptr noundef @__func__.H5B2_close, i32 noundef 1414, i64 noundef %65, i64 noundef %66, ptr noundef @.str.3)
  br label %68

68:                                               ; preds = %64
  br label %69

69:                                               ; preds = %68
  store i8 1, ptr %7, align 1, !tbaa !15
  %70 = load i8, ptr %7, align 1, !tbaa !15, !range !17, !noundef !18
  %71 = trunc i8 %70 to i1
  %72 = zext i1 %71 to i8
  store i8 %72, ptr %7, align 1, !tbaa !15
  br label %73

73:                                               ; preds = %69
  br label %74

74:                                               ; preds = %73
  br label %75

75:                                               ; preds = %74
  store i32 -1, ptr %6, align 4, !tbaa !24
  store i32 10, ptr %9, align 4
  br label %134

76:                                               ; No predecessors!
  br label %77

77:                                               ; preds = %76
  br label %78

78:                                               ; preds = %77
  br label %79

79:                                               ; preds = %78
  br label %80

80:                                               ; preds = %79, %54
  %81 = load ptr, ptr %3, align 8, !tbaa !11
  %82 = getelementptr inbounds nuw %struct.H5B2_t, ptr %81, i32 0, i32 1
  %83 = load ptr, ptr %82, align 8, !tbaa !23
  %84 = load ptr, ptr %8, align 8, !tbaa !13
  %85 = getelementptr inbounds nuw %struct.H5B2_hdr_t, ptr %84, i32 0, i32 8
  store ptr %83, ptr %85, align 8, !tbaa !26
  %86 = load ptr, ptr %3, align 8, !tbaa !11
  %87 = getelementptr inbounds nuw %struct.H5B2_t, ptr %86, i32 0, i32 0
  %88 = load ptr, ptr %87, align 8, !tbaa !21
  %89 = call i32 @H5B2__hdr_decr(ptr noundef %88)
  %90 = icmp slt i32 %89, 0
  br i1 %90, label %91, label %110

91:                                               ; preds = %80
  br label %92

92:                                               ; preds = %91
  br label %93

93:                                               ; preds = %92
  br label %94

94:                                               ; preds = %93
  %95 = load i64, ptr @H5E_BTREE_g, align 8, !tbaa !19
  %96 = load i64, ptr @H5E_CANTDEC_g, align 8, !tbaa !19
  %97 = call i32 (ptr, ptr, i32, i64, i64, ptr, ...) @H5E_printf_stack(ptr noundef @.str, ptr noundef @__func__.H5B2_close, i32 noundef 1425, i64 noundef %95, i64 noundef %96, ptr noundef @.str.34)
  br label %98

98:                                               ; preds = %94
  br label %99

99:                                               ; preds = %98
  store i8 1, ptr %7, align 1, !tbaa !15
  %100 = load i8, ptr %7, align 1, !tbaa !15, !range !17, !noundef !18
  %101 = trunc i8 %100 to i1
  %102 = zext i1 %101 to i8
  store i8 %102, ptr %7, align 1, !tbaa !15
  br label %103

103:                                              ; preds = %99
  br label %104

104:                                              ; preds = %103
  br label %105

105:                                              ; preds = %104
  store i32 -1, ptr %6, align 4, !tbaa !24
  store i32 10, ptr %9, align 4
  br label %134

106:                                              ; No predecessors!
  br label %107

107:                                              ; preds = %106
  br label %108

108:                                              ; preds = %107
  br label %109

109:                                              ; preds = %108
  br label %110

110:                                              ; preds = %109, %80
  %111 = load ptr, ptr %8, align 8, !tbaa !13
  %112 = call i32 @H5B2__hdr_delete(ptr noundef %111)
  %113 = icmp slt i32 %112, 0
  br i1 %113, label %114, label %133

114:                                              ; preds = %110
  br label %115

115:                                              ; preds = %114
  br label %116

116:                                              ; preds = %115
  br label %117

117:                                              ; preds = %116
  %118 = load i64, ptr @H5E_BTREE_g, align 8, !tbaa !19
  %119 = load i64, ptr @H5E_CANTDELETE_g, align 8, !tbaa !19
  %120 = call i32 (ptr, ptr, i32, i64, i64, ptr, ...) @H5E_printf_stack(ptr noundef @.str, ptr noundef @__func__.H5B2_close, i32 noundef 1429, i64 noundef %118, i64 noundef %119, ptr noundef @.str.35)
  br label %121

121:                                              ; preds = %117
  br label %122

122:                                              ; preds = %121
  store i8 1, ptr %7, align 1, !tbaa !15
  %123 = load i8, ptr %7, align 1, !tbaa !15, !range !17, !noundef !18
  %124 = trunc i8 %123 to i1
  %125 = zext i1 %124 to i8
  store i8 %125, ptr %7, align 1, !tbaa !15
  br label %126

126:                                              ; preds = %122
  br label %127

127:                                              ; preds = %126
  br label %128

128:                                              ; preds = %127
  store i32 -1, ptr %6, align 4, !tbaa !24
  store i32 10, ptr %9, align 4
  br label %134

129:                                              ; No predecessors!
  br label %130

130:                                              ; preds = %129
  br label %131

131:                                              ; preds = %130
  br label %132

132:                                              ; preds = %131
  br label %133

133:                                              ; preds = %132, %110
  store i32 0, ptr %9, align 4
  br label %134

134:                                              ; preds = %128, %105, %75, %133
  call void @llvm.lifetime.end.p0(i64 8, ptr %8) #6
  %135 = load i32, ptr %9, align 4
  switch i32 %135, label %169 [
    i32 0, label %136
    i32 10, label %166
  ]

136:                                              ; preds = %134
  br label %163

137:                                              ; preds = %51
  %138 = load ptr, ptr %3, align 8, !tbaa !11
  %139 = getelementptr inbounds nuw %struct.H5B2_t, ptr %138, i32 0, i32 0
  %140 = load ptr, ptr %139, align 8, !tbaa !21
  %141 = call i32 @H5B2__hdr_decr(ptr noundef %140)
  %142 = icmp slt i32 %141, 0
  br i1 %142, label %143, label %162

143:                                              ; preds = %137
  br label %144

144:                                              ; preds = %143
  br label %145

145:                                              ; preds = %144
  br label %146

146:                                              ; preds = %145
  %147 = load i64, ptr @H5E_BTREE_g, align 8, !tbaa !19
  %148 = load i64, ptr @H5E_CANTDEC_g, align 8, !tbaa !19
  %149 = call i32 (ptr, ptr, i32, i64, i64, ptr, ...) @H5E_printf_stack(ptr noundef @.str, ptr noundef @__func__.H5B2_close, i32 noundef 1438, i64 noundef %147, i64 noundef %148, ptr noundef @.str.34)
  br label %150

150:                                              ; preds = %146
  br label %151

151:                                              ; preds = %150
  store i8 1, ptr %7, align 1, !tbaa !15
  %152 = load i8, ptr %7, align 1, !tbaa !15, !range !17, !noundef !18
  %153 = trunc i8 %152 to i1
  %154 = zext i1 %153 to i8
  store i8 %154, ptr %7, align 1, !tbaa !15
  br label %155

155:                                              ; preds = %151
  br label %156

156:                                              ; preds = %155
  br label %157

157:                                              ; preds = %156
  store i32 -1, ptr %6, align 4, !tbaa !24
  br label %166

158:                                              ; No predecessors!
  br label %159

159:                                              ; preds = %158
  br label %160

160:                                              ; preds = %159
  br label %161

161:                                              ; preds = %160
  br label %162

162:                                              ; preds = %161, %137
  br label %163

163:                                              ; preds = %162, %136
  %164 = load ptr, ptr %3, align 8, !tbaa !11
  %165 = call ptr @H5FL_reg_free(ptr noundef @H5_H5B2_t_reg_free_list, ptr noundef %164)
  store ptr %165, ptr %3, align 8, !tbaa !11
  br label %166

166:                                              ; preds = %163, %134, %157
  br label %167

167:                                              ; preds = %166, %16
  %168 = load i32, ptr %6, align 4, !tbaa !24
  store i32 %168, ptr %2, align 4
  store i32 1, ptr %9, align 4
  br label %169

169:                                              ; preds = %167, %134
  call void @llvm.lifetime.end.p0(i64 1, ptr %7) #6
  call void @llvm.lifetime.end.p0(i64 4, ptr %6) #6
  call void @llvm.lifetime.end.p0(i64 1, ptr %5) #6
  call void @llvm.lifetime.end.p0(i64 8, ptr %4) #6
  %170 = load i32, ptr %2, align 4
  ret i32 %170
}