; Function Attrs: nounwind uwtable
define range(i32 -1, 1) i32 @H5B2_close(ptr noundef %0) local_unnamed_addr #0 {
  %2 = load i8, ptr @H5B2_init_g, align 1, !tbaa !3, !range !7, !noundef !8
  %3 = trunc nuw i8 %2 to i1
  %4 = load i8, ptr @H5_libterm_g, align 1, !range !7
  %5 = trunc nuw i8 %4 to i1
  %6 = xor i1 %5, true
  %7 = select i1 %3, i1 true, i1 %6
  br i1 %7, label %8, label %.thread28, !prof !9

8:                                                ; preds = %1
  %9 = load ptr, ptr %0, align 8, !tbaa !13
  %10 = tail call i64 @H5B2__hdr_fuse_decr(ptr noundef %9) #7
  %11 = icmp eq i64 %10, 0
  %.pre = load ptr, ptr %0, align 8, !tbaa !13
  br i1 %11, label %12, label %45

12:                                               ; preds = %8
  %13 = getelementptr inbounds nuw i8, ptr %0, i64 8
  %14 = load ptr, ptr %13, align 8, !tbaa !18
  %15 = getelementptr inbounds nuw i8, ptr %.pre, i64 288
  store ptr %14, ptr %15, align 8, !tbaa !19
  %16 = getelementptr inbounds nuw i8, ptr %.pre, i64 328
  %17 = load i8, ptr %16, align 8, !tbaa !34, !range !7, !noundef !8
  %18 = trunc nuw i8 %17 to i1
  br i1 %18, label %19, label %45

19:                                               ; preds = %12
  %20 = getelementptr inbounds nuw i8, ptr %.pre, i64 296
  %21 = load i64, ptr %20, align 8, !tbaa !35
  %22 = tail call ptr @H5B2__hdr_protect(ptr noundef %14, i64 noundef %21, ptr noundef null, i32 noundef 0) #7
  %23 = icmp eq ptr %22, null
  br i1 %23, label %24, label %28

24:                                               ; preds = %19
  %25 = load i64, ptr @H5E_BTREE_g, align 8, !tbaa !11
  %26 = load i64, ptr @H5E_CANTPROTECT_g, align 8, !tbaa !11
  %27 = tail call i32 (ptr, ptr, i32, i64, i64, ptr, ...) @H5E_printf_stack(ptr noundef nonnull @.str, ptr noundef nonnull @__func__.H5B2_close, i32 noundef 1414, i64 noundef %25, i64 noundef %26, ptr noundef nonnull @.str.3) #7
  br label %.thread28

28:                                               ; preds = %19
  %29 = load ptr, ptr %13, align 8, !tbaa !18
  %30 = getelementptr inbounds nuw i8, ptr %22, i64 288
  store ptr %29, ptr %30, align 8, !tbaa !19
  %31 = load ptr, ptr %0, align 8, !tbaa !13
  %32 = tail call i32 @H5B2__hdr_decr(ptr noundef %31) #7
  %33 = icmp slt i32 %32, 0
  br i1 %33, label %34, label %38

34:                                               ; preds = %28
  %35 = load i64, ptr @H5E_BTREE_g, align 8, !tbaa !11
  %36 = load i64, ptr @H5E_CANTDEC_g, align 8, !tbaa !11
  %37 = tail call i32 (ptr, ptr, i32, i64, i64, ptr, ...) @H5E_printf_stack(ptr noundef nonnull @.str, ptr noundef nonnull @__func__.H5B2_close, i32 noundef 1425, i64 noundef %35, i64 noundef %36, ptr noundef nonnull @.str.34) #7
  br label %.thread28

38:                                               ; preds = %28
  %39 = tail call i32 @H5B2__hdr_delete(ptr noundef nonnull %22) #7
  %40 = icmp slt i32 %39, 0
  br i1 %40, label %41, label %52

41:                                               ; preds = %38
  %42 = load i64, ptr @H5E_BTREE_g, align 8, !tbaa !11
  %43 = load i64, ptr @H5E_CANTDELETE_g, align 8, !tbaa !11
  %44 = tail call i32 (ptr, ptr, i32, i64, i64, ptr, ...) @H5E_printf_stack(ptr noundef nonnull @.str, ptr noundef nonnull @__func__.H5B2_close, i32 noundef 1429, i64 noundef %42, i64 noundef %43, ptr noundef nonnull @.str.35) #7
  br label %.thread28

45:                                               ; preds = %12, %8
  %46 = tail call i32 @H5B2__hdr_decr(ptr noundef %.pre) #7
  %47 = icmp slt i32 %46, 0
  br i1 %47, label %48, label %52

48:                                               ; preds = %45
  %49 = load i64, ptr @H5E_BTREE_g, align 8, !tbaa !11
  %50 = load i64, ptr @H5E_CANTDEC_g, align 8, !tbaa !11
  %51 = tail call i32 (ptr, ptr, i32, i64, i64, ptr, ...) @H5E_printf_stack(ptr noundef nonnull @.str, ptr noundef nonnull @__func__.H5B2_close, i32 noundef 1438, i64 noundef %49, i64 noundef %50, ptr noundef nonnull @.str.34) #7
  br label %.thread28

52:                                               ; preds = %38, %45
  %53 = tail call ptr @H5FL_reg_free(ptr noundef nonnull @H5_H5B2_t_reg_free_list, ptr noundef nonnull %0) #7
  br label %.thread28

.thread28:                                        ; preds = %41, %34, %24, %1, %52, %48
  %.020 = phi i32 [ 0, %52 ], [ -1, %48 ], [ 0, %1 ], [ -1, %24 ], [ -1, %34 ], [ -1, %41 ]
  ret i32 %.020
}